; ModuleID = 'source-C-CXX/18/718.c'
source_filename = "source-C-CXX/18/718.c"
target datalayout = "e-m:e-p270:32:32-p271:32:32-p272:64:64-i64:64-f80:128-n8:16:32:64-S128"
target triple = "x86_64-pc-linux-gnu"

@.str = private unnamed_addr constant [3 x i8] c"%s\00", align 1

; Function Attrs: nounwind sspstrong uwtable
define dso_local i32 @main() local_unnamed_addr #0 {
  %1 = alloca [1000 x i8], align 16
  %2 = alloca [100 x i8], align 16
  %3 = alloca [100 x i8], align 16
  %4 = alloca [100 x i8], align 16
  %5 = getelementptr inbounds [1000 x i8], [1000 x i8]* %1, i64 0, i64 0
  call void @llvm.lifetime.start.p0i8(i64 1000, i8* nonnull %5) #7
  %6 = getelementptr inbounds [100 x i8], [100 x i8]* %2, i64 0, i64 0
  call void @llvm.lifetime.start.p0i8(i64 100, i8* nonnull %6) #7
  %7 = getelementptr inbounds [100 x i8], [100 x i8]* %3, i64 0, i64 0
  call void @llvm.lifetime.start.p0i8(i64 100, i8* nonnull %7) #7
  %8 = getelementptr inbounds [100 x i8], [100 x i8]* %4, i64 0, i64 0
  call void @llvm.lifetime.start.p0i8(i64 100, i8* nonnull %8) #7
  %9 = call i32 (i8*, ...) bitcast (i32 (...)* @gets to i32 (i8*, ...)*)(i8* nonnull %7) #7
  %10 = call i32 (i8*, ...) @__isoc99_scanf(i8* getelementptr inbounds ([3 x i8], [3 x i8]* @.str, i64 0, i64 0), i8* nonnull %5)
  %11 = call i32 (i8*, ...) @__isoc99_scanf(i8* getelementptr inbounds ([3 x i8], [3 x i8]* @.str, i64 0, i64 0), i8* nonnull %6)
  %12 = call i64 @strlen(i8* noundef nonnull %7) #8
  %13 = trunc i64 %12 to i32
  %14 = icmp sgt i32 %13, 0
  br i1 %14, label %15, label %57

15:                                               ; preds = %0, %54
  %16 = phi i32 [ %55, %54 ], [ 0, %0 ]
  %17 = sext i32 %16 to i64
  %18 = getelementptr inbounds [100 x i8], [100 x i8]* %3, i64 0, i64 %17
  %19 = load i8, i8* %18, align 1, !tbaa !5
  %20 = sext i8 %19 to i32
  %21 = call i32 @isgraph(i32 %20) #8
  %22 = icmp eq i32 %21, 0
  br i1 %22, label %37, label %23

23:                                               ; preds = %15, %23
  %24 = phi i64 [ %28, %23 ], [ 0, %15 ]
  %25 = phi i64 [ %27, %23 ], [ %17, %15 ]
  %26 = phi i8 [ %31, %23 ], [ %19, %15 ]
  %27 = add nsw i64 %25, 1
  %28 = add nuw i64 %24, 1
  %29 = getelementptr inbounds [100 x i8], [100 x i8]* %4, i64 0, i64 %24
  store i8 %26, i8* %29, align 1, !tbaa !5
  %30 = getelementptr inbounds [100 x i8], [100 x i8]* %3, i64 0, i64 %27
  %31 = load i8, i8* %30, align 1, !tbaa !5
  %32 = sext i8 %31 to i32
  %33 = call i32 @isgraph(i32 %32) #8
  %34 = icmp eq i32 %33, 0
  br i1 %34, label %35, label %23, !llvm.loop !8

35:                                               ; preds = %23
  %36 = trunc i64 %27 to i32
  br label %37

37:                                               ; preds = %35, %15
  %38 = phi i64 [ %17, %15 ], [ %27, %35 ]
  %39 = phi i64 [ 0, %15 ], [ %28, %35 ]
  %40 = phi i32 [ %16, %15 ], [ %36, %35 ]
  %41 = getelementptr inbounds [100 x i8], [100 x i8]* %3, i64 0, i64 %38
  %42 = and i64 %39, 4294967295
  %43 = getelementptr inbounds [100 x i8], [100 x i8]* %4, i64 0, i64 %42
  store i8 0, i8* %43, align 1, !tbaa !5
  %44 = call i32 @strcmp(i8* noundef nonnull %8, i8* noundef nonnull %5) #8
  %45 = icmp eq i32 %44, 0
  %46 = select i1 %45, i8* %6, i8* %8
  %47 = call i32 (i8*, ...) @printf(i8* nonnull dereferenceable(1) getelementptr inbounds ([3 x i8], [3 x i8]* @.str, i64 0, i64 0), i8* nonnull %46)
  %48 = load i8, i8* %41, align 1, !tbaa !5
  %49 = icmp eq i8 %48, 0
  br i1 %49, label %54, label %50

50:                                               ; preds = %37
  %51 = add nsw i32 %40, 1
  %52 = sext i8 %48 to i32
  %53 = call i32 @putchar(i32 %52)
  br label %54

54:                                               ; preds = %50, %37
  %55 = phi i32 [ %51, %50 ], [ %40, %37 ]
  %56 = icmp slt i32 %55, %13
  br i1 %56, label %15, label %57, !llvm.loop !10

57:                                               ; preds = %54, %0
  call void @llvm.lifetime.end.p0i8(i64 100, i8* nonnull %8) #7
  call void @llvm.lifetime.end.p0i8(i64 100, i8* nonnull %7) #7
  call void @llvm.lifetime.end.p0i8(i64 100, i8* nonnull %6) #7
  call void @llvm.lifetime.end.p0i8(i64 1000, i8* nonnull %5) #7
  ret i32 0
}

; Function Attrs: argmemonly mustprogress nofree nosync nounwind willreturn
declare void @llvm.lifetime.start.p0i8(i64 immarg, i8* nocapture) #1

declare i32 @gets(...) local_unnamed_addr #2

; Function Attrs: nofree nounwind
declare noundef i32 @__isoc99_scanf(i8* nocapture noundef readonly, ...) local_unnamed_addr #3

; Function Attrs: argmemonly mustprogress nofree nounwind readonly willreturn
declare i64 @strlen(i8* nocapture) local_unnamed_addr #4

; Function Attrs: mustprogress nofree nounwind readonly willreturn
declare i32 @isgraph(i32) local_unnamed_addr #5

; Function Attrs: argmemonly mustprogress nofree nounwind readonly willreturn
declare i32 @strcmp(i8* nocapture, i8* nocapture) local_unnamed_addr #4

; Function Attrs: nofree nounwind
declare noundef i32 @printf(i8* nocapture noundef readonly, ...) local_unnamed_addr #3

; Function Attrs: argmemonly mustprogress nofree nosync nounwind willreturn
declare void @llvm.lifetime.end.p0i8(i64 immarg, i8* nocapture) #1

; Function Attrs: nofree nounwind
declare noundef i32 @putchar(i32 noundef) local_unnamed_addr #6


!llvm.module.flags = !{!0, !1, !2, !3}
!llvm.ident = !{!4}

!0 = !{i32 1, !"wchar_size", i32 4}
!1 = !{i32 7, !"PIC Level", i32 2}
!2 = !{i32 7, !"PIE Level", i32 2}
!3 = !{i32 7, !"uwtable", i32 1}
!4 = !{!"clang version 13.0.0"}
!5 = !{!6, !6, i64 0}
!6 = !{!"omnipotent char", !7, i64 0}
!7 = !{!"Simple C/C++ TBAA"}
!8 = distinct !{!8, !9}
!9 = !{!"llvm.loop.mustprogress"}
!10 = distinct !{!10, !9}
